; ModuleID = 'source-C-CXX/27/1749.c'
source_filename = "source-C-CXX/27/1749.c"
target datalayout = "e-m:e-p270:32:32-p271:32:32-p272:64:64-i64:64-f80:128-n8:16:32:64-S128"
target triple = "x86_64-pc-linux-gnu"

@.str = private unnamed_addr constant [3 x i8] c"%d\00", align 1
@.str.1 = private unnamed_addr constant [4 x i8] c",%d\00", align 1

; Function Attrs: nounwind sspstrong uwtable
define dso_local i32 @main() local_unnamed_addr #0 {
  %1 = alloca [30000 x i8], align 16
  %2 = alloca [301 x i32], align 16
  %3 = getelementptr inbounds [30000 x i8], [30000 x i8]* %1, i64 0, i64 0
  call void @llvm.lifetime.start.p0i8(i64 30000, i8* nonnull %3) #6
  %4 = bitcast [301 x i32]* %2 to i8*
  call void @llvm.lifetime.start.p0i8(i64 1204, i8* nonnull %4) #6
  call void @llvm.memset.p0i8.i64(i8* noundef nonnull align 16 dereferenceable(1204) %4, i8 0, i64 1204, i1 false)
  %5 = call i32 (i8*, ...) bitcast (i32 (...)* @gets to i32 (i8*, ...)*)(i8* nonnull %3) #6
  %6 = call i64 @strlen(i8* noundef nonnull %3) #7
  %7 = trunc i64 %6 to i32
  %8 = icmp sgt i32 %7, 0
  br i1 %8, label %20, label %13

9:                                                ; preds = %36
  %10 = getelementptr inbounds [301 x i32], [301 x i32]* %2, i64 0, i64 0
  %11 = load i32, i32* %10, align 16
  %12 = icmp slt i32 %38, 0
  br i1 %12, label %52, label %13

13:                                               ; preds = %0, %9
  %14 = phi i32 [ %38, %9 ], [ 0, %0 ]
  %15 = phi i32 [ %11, %9 ], [ 0, %0 ]
  %16 = add nuw i32 %14, 1
  %17 = zext i32 %16 to i64
  %18 = call i32 (i8*, ...) @printf(i8* nonnull dereferenceable(1) getelementptr inbounds ([3 x i8], [3 x i8]* @.str, i64 0, i64 0), i32 %15)
  %19 = icmp eq i32 %14, 0
  br i1 %19, label %52, label %45

20:                                               ; preds = %0, %36
  %21 = phi i32 [ %38, %36 ], [ 0, %0 ]
  %22 = phi i32 [ %43, %36 ], [ 0, %0 ]
  %23 = sext i32 %22 to i64
  %24 = getelementptr inbounds [30000 x i8], [30000 x i8]* %1, i64 0, i64 %23
  %25 = load i8, i8* %24, align 1, !tbaa !5
  %26 = icmp eq i8 %25, 32
  br i1 %26, label %27, label %36

27:                                               ; preds = %20, %27
  %28 = phi i64 [ %29, %27 ], [ %23, %20 ]
  %29 = add nsw i64 %28, 1
  %30 = getelementptr inbounds [30000 x i8], [30000 x i8]* %1, i64 0, i64 %29
  %31 = load i8, i8* %30, align 1, !tbaa !5
  %32 = icmp eq i8 %31, 32
  br i1 %32, label %27, label %33

33:                                               ; preds = %27
  %34 = trunc i64 %29 to i32
  %35 = add nsw i32 %21, 1
  br label %36

36:                                               ; preds = %33, %20
  %37 = phi i32 [ %34, %33 ], [ %22, %20 ]
  %38 = phi i32 [ %35, %33 ], [ %21, %20 ]
  %39 = sext i32 %38 to i64
  %40 = getelementptr inbounds [301 x i32], [301 x i32]* %2, i64 0, i64 %39
  %41 = load i32, i32* %40, align 4, !tbaa !8
  %42 = add nsw i32 %41, 1
  store i32 %42, i32* %40, align 4, !tbaa !8
  %43 = add nsw i32 %37, 1
  %44 = icmp slt i32 %43, %7
  br i1 %44, label %20, label %9, !llvm.loop !10

45:                                               ; preds = %13, %45
  %46 = phi i64 [ %50, %45 ], [ 1, %13 ]
  %47 = getelementptr inbounds [301 x i32], [301 x i32]* %2, i64 0, i64 %46
  %48 = load i32, i32* %47, align 4, !tbaa !8
  %49 = call i32 (i8*, ...) @printf(i8* nonnull dereferenceable(1) getelementptr inbounds ([4 x i8], [4 x i8]* @.str.1, i64 0, i64 0), i32 %48)
  %50 = add nuw nsw i64 %46, 1
  %51 = icmp eq i64 %50, %17
  br i1 %51, label %52, label %45, !llvm.loop !12

52:                                               ; preds = %45, %13, %9
  call void @llvm.lifetime.end.p0i8(i64 1204, i8* nonnull %4) #6
  call void @llvm.lifetime.end.p0i8(i64 30000, i8* nonnull %3) #6
  ret i32 0
}

; Function Attrs: argmemonly mustprogress nofree nosync nounwind willreturn
declare void @llvm.lifetime.start.p0i8(i64 immarg, i8* nocapture) #1

; Function Attrs: argmemonly mustprogress nofree nounwind willreturn writeonly
declare void @llvm.memset.p0i8.i64(i8* nocapture writeonly, i8, i64, i1 immarg) #2

declare i32 @gets(...) local_unnamed_addr #3

; Function Attrs: argmemonly mustprogress nofree nounwind readonly willreturn
declare i64 @strlen(i8* nocapture) local_unnamed_addr #4

; Function Attrs: nofree nounwind
declare noundef i32 @printf(i8* nocapture noundef readonly, ...) local_unnamed_addr #5

; Function Attrs: argmemonly mustprogress nofree nosync nounwind willreturn
declare void @llvm.lifetime.end.p0i8(i64 immarg, i8* nocapture) #1


!llvm.module.flags = !{!0, !1, !2, !3}
!llvm.ident = !{!4}

!0 = !{i32 1, !"wchar_size", i32 4}
!1 = !{i32 7, !"PIC Level", i32 2}
!2 = !{i32 7, !"PIE Level", i32 2}
!3 = !{i32 7, !"uwtable", i32 1}
!4 = !{!"clang version 13.0.0"}
!5 = !{!6, !6, i64 0}
!6 = !{!"omnipotent char", !7, i64 0}
!7 = !{!"Simple C/C++ TBAA"}
!8 = !{!9, !9, i64 0}
!9 = !{!"int", !6, i64 0}
!10 = distinct !{!10, !11}
!11 = !{!"llvm.loop.mustprogress"}
!12 = distinct !{!12, !11, !13}
!13 = !{!"llvm.loop.peeled.count", i32 1}
